target datalayout = "e-m:e-p270:32:32-p271:32:32-p272:64:64-i64:64-i128:128-f80:128-n8:16:32:64-S128"
target triple = "x86_64-pc-linux-gnu"

@stderr = external global ptr, align 8
@_ZZL7initMsgPKcE2ps = internal global i32 0, align 4
@.str.60 = private unnamed_addr constant [9 x i8] c"uconvmsg\00", align 1
@uconvmsg_dat = external global [0 x i8], align 1
@.str.61 = private unnamed_addr constant [96 x i8] c"%s: warning, problem installing our static resource bundle data uconvmsg: %s - trying anyways.\0A\00", align 1
@_ZL7gBundle = internal global ptr null, align 8
@.str.62 = private unnamed_addr constant [42 x i8] c"%s: warning: couldn't open bundle %s: %s\0A\00", align 1
@.str.63 = private unnamed_addr constant [60 x i8] c"%s: setAppData was called, internal data %s failed to load\0A\00", align 1
@.str.64 = private unnamed_addr constant [2 x i8] c"/\00", align 1
@.str.65 = private unnamed_addr constant [48 x i8] c"%s: warning: still couldn't open bundle %s: %s\0A\00", align 1
@.str.66 = private unnamed_addr constant [45 x i8] c"%s: warning: messages will not be displayed\0A\00", align 1

; Function Attrs: inlinehint mustprogress nounwind uwtable
define internal noundef signext i8 @_ZL9U_FAILURE10UErrorCode(i32 noundef %0) #7 {
  %2 = alloca i32, align 4
  store i32 %0, ptr %2, align 4, !tbaa !19
  %3 = load i32, ptr %2, align 4, !tbaa !19
  %4 = icmp sgt i32 %3, 0
  %5 = zext i1 %4 to i8
  ret i8 %5
}

; Function Attrs: mustprogress uwtable
define internal void @_ZL7initMsgPKc(ptr noundef %0) #0 {
  %2 = alloca ptr, align 8
  %3 = alloca [2048 x i8], align 16
  %4 = alloca i32, align 4
  store ptr %0, ptr %2, align 8, !tbaa !9
  %5 = load i32, ptr @_ZZL7initMsgPKcE2ps, align 4, !tbaa !15
  %6 = icmp ne i32 %5, 0
  br i1 %6, label %55, label %7

7:                                                ; preds = %1
  call void @llvm.lifetime.start.p0(i64 2048, ptr %3) #17
  call void @llvm.lifetime.start.p0(i64 4, ptr %4) #17
  store i32 0, ptr %4, align 4, !tbaa !19
  store i32 1, ptr @_ZZL7initMsgPKcE2ps, align 4, !tbaa !15
  call void @udata_setAppData_77(ptr noundef @.str.60, ptr noundef @uconvmsg_dat, ptr noundef %4)
  %8 = load i32, ptr %4, align 4, !tbaa !19
  %9 = call noundef signext i8 @_ZL9U_FAILURE10UErrorCode(i32 noundef %8)
  %10 = icmp ne i8 %9, 0
  br i1 %10, label %11, label %17

11:                                               ; preds = %7
  %12 = load ptr, ptr @stderr, align 8, !tbaa !13
  %13 = load ptr, ptr %2, align 8, !tbaa !9
  %14 = load i32, ptr %4, align 4, !tbaa !19
  %15 = call ptr @u_errorName_77(i32 noundef %14)
  %16 = call i32 (ptr, ptr, ...) @fprintf(ptr noundef %12, ptr noundef @.str.61, ptr noundef %13, ptr noundef %15) #17
  store i32 0, ptr %4, align 4, !tbaa !19
  br label %17

17:                                               ; preds = %11, %7
  %18 = call ptr @u_wmsg_setPath(ptr noundef @.str.60, ptr noundef %4)
  store ptr %18, ptr @_ZL7gBundle, align 8, !tbaa !53
  %19 = load i32, ptr %4, align 4, !tbaa !19
  %20 = call noundef signext i8 @_ZL9U_FAILURE10UErrorCode(i32 noundef %19)
  %21 = icmp ne i8 %20, 0
  br i1 %21, label %22, label %54

22:                                               ; preds = %17
  %23 = load ptr, ptr @stderr, align 8, !tbaa !13
  %24 = load ptr, ptr %2, align 8, !tbaa !9
  %25 = load i32, ptr %4, align 4, !tbaa !19
  %26 = call ptr @u_errorName_77(i32 noundef %25)
  %27 = call i32 (ptr, ptr, ...) @fprintf(ptr noundef %23, ptr noundef @.str.62, ptr noundef %24, ptr noundef @.str.60, ptr noundef %26) #17
  %28 = load ptr, ptr @stderr, align 8, !tbaa !13
  %29 = load ptr, ptr %2, align 8, !tbaa !9
  %30 = call i32 (ptr, ptr, ...) @fprintf(ptr noundef %28, ptr noundef @.str.63, ptr noundef %29, ptr noundef @.str.60) #17
  store i32 0, ptr %4, align 4, !tbaa !19
  %31 = getelementptr inbounds [2048 x i8], ptr %3, i64 0, i64 0
  %32 = call ptr @u_getDataDirectory_77()
  %33 = call ptr @strcpy(ptr noundef %31, ptr noundef %32) #17
  %34 = getelementptr inbounds [2048 x i8], ptr %3, i64 0, i64 0
  %35 = call ptr @strcat(ptr noundef %34, ptr noundef @.str.64) #17
  %36 = getelementptr inbounds [2048 x i8], ptr %3, i64 0, i64 0
  %37 = call ptr @strcat(ptr noundef %36, ptr noundef @.str.60) #17
  %38 = getelementptr inbounds [2048 x i8], ptr %3, i64 0, i64 0
  %39 = call ptr @u_wmsg_setPath(ptr noundef %38, ptr noundef %4)
  store ptr %39, ptr @_ZL7gBundle, align 8, !tbaa !53
  %40 = load i32, ptr %4, align 4, !tbaa !19
  %41 = call noundef signext i8 @_ZL9U_FAILURE10UErrorCode(i32 noundef %40)
  %42 = icmp ne i8 %41, 0
  br i1 %42, label %43, label %53

43:                                               ; preds = %22
  %44 = load ptr, ptr @stderr, align 8, !tbaa !13
  %45 = load ptr, ptr %2, align 8, !tbaa !9
  %46 = getelementptr inbounds [2048 x i8], ptr %3, i64 0, i64 0
  %47 = load i32, ptr %4, align 4, !tbaa !19
  %48 = call ptr @u_errorName_77(i32 noundef %47)
  %49 = call i32 (ptr, ptr, ...) @fprintf(ptr noundef %44, ptr noundef @.str.65, ptr noundef %45, ptr noundef %46, ptr noundef %48) #17
  %50 = load ptr, ptr @stderr, align 8, !tbaa !13
  %51 = load ptr, ptr %2, align 8, !tbaa !9
  %52 = call i32 (ptr, ptr, ...) @fprintf(ptr noundef %50, ptr noundef @.str.66, ptr noundef %51) #17
  br label %53

53:                                               ; preds = %43, %22
  br label %54

54:                                               ; preds = %53, %17
  call void @llvm.lifetime.end.p0(i64 4, ptr %4) #17
  call void @llvm.lifetime.end.p0(i64 2048, ptr %3) #17
  br label %55

55:                                               ; preds = %54, %1
  ret void
}