; Function Attrs: mustprogress uwtable
define internal fastcc void @_ZL7initMsgPKc(ptr noundef %0) unnamed_addr #0 {
  %2 = alloca [2048 x i8], align 16
  %3 = alloca i32, align 4
  %.b = load i1, ptr @_ZZL7initMsgPKcE2ps, align 4
  br i1 %.b, label %33, label %4

4:                                                ; preds = %1
  call void @llvm.lifetime.start.p0(i64 2048, ptr nonnull %2) #20
  call void @llvm.lifetime.start.p0(i64 4, ptr nonnull %3) #20
  store i32 0, ptr %3, align 4, !tbaa !4
  store i1 true, ptr @_ZZL7initMsgPKcE2ps, align 4
  call void @udata_setAppData_77(ptr noundef nonnull @.str.60, ptr noundef nonnull @uconvmsg_dat, ptr noundef nonnull %3)
  %5 = load i32, ptr %3, align 4, !tbaa !4
  %6 = icmp slt i32 %5, 1
  br i1 %6, label %11, label %7

7:                                                ; preds = %4
  %8 = load ptr, ptr @stderr, align 8, !tbaa !13
  %9 = call ptr @u_errorName_77(i32 noundef %5)
  %10 = call i32 (ptr, ptr, ...) @fprintf(ptr noundef %8, ptr noundef nonnull @.str.61, ptr noundef %0, ptr noundef %9) #22
  store i32 0, ptr %3, align 4, !tbaa !4
  br label %11

11:                                               ; preds = %7, %4
  %12 = call ptr @u_wmsg_setPath(ptr noundef nonnull @.str.60, ptr noundef nonnull %3)
  store ptr %12, ptr @_ZL7gBundle, align 8, !tbaa !44
  %13 = load i32, ptr %3, align 4, !tbaa !4
  %14 = icmp slt i32 %13, 1
  br i1 %14, label %32, label %15

15:                                               ; preds = %11
  %16 = load ptr, ptr @stderr, align 8, !tbaa !13
  %17 = call ptr @u_errorName_77(i32 noundef %13)
  %18 = call i32 (ptr, ptr, ...) @fprintf(ptr noundef %16, ptr noundef nonnull @.str.62, ptr noundef %0, ptr noundef nonnull @.str.60, ptr noundef %17) #22
  %19 = load ptr, ptr @stderr, align 8, !tbaa !13
  %20 = call i32 (ptr, ptr, ...) @fprintf(ptr noundef %19, ptr noundef nonnull @.str.63, ptr noundef %0, ptr noundef nonnull @.str.60) #22
  store i32 0, ptr %3, align 4, !tbaa !4
  %21 = call ptr @u_getDataDirectory_77()
  %22 = call ptr @strcpy(ptr noundef nonnull dereferenceable(1) %2, ptr noundef nonnull dereferenceable(1) %21) #20
  %strlen = call i64 @strlen(ptr nonnull dereferenceable(1) %2)
  %endptr = getelementptr inbounds i8, ptr %2, i64 %strlen
  store i16 47, ptr %endptr, align 1
  %strlen6 = call i64 @strlen(ptr nonnull dereferenceable(1) %2)
  %endptr7 = getelementptr inbounds i8, ptr %2, i64 %strlen6
  call void @llvm.memcpy.p0.p0.i64(ptr noundef nonnull align 1 dereferenceable(9) %endptr7, ptr noundef nonnull align 1 dereferenceable(9) @.str.60, i64 9, i1 false)
  %23 = call ptr @u_wmsg_setPath(ptr noundef nonnull %2, ptr noundef nonnull %3)
  store ptr %23, ptr @_ZL7gBundle, align 8, !tbaa !44
  %24 = load i32, ptr %3, align 4, !tbaa !4
  %25 = icmp slt i32 %24, 1
  br i1 %25, label %32, label %26

26:                                               ; preds = %15
  %27 = load ptr, ptr @stderr, align 8, !tbaa !13
  %28 = call ptr @u_errorName_77(i32 noundef %24)
  %29 = call i32 (ptr, ptr, ...) @fprintf(ptr noundef %27, ptr noundef nonnull @.str.65, ptr noundef %0, ptr noundef nonnull %2, ptr noundef %28) #22
  %30 = load ptr, ptr @stderr, align 8, !tbaa !13
  %31 = call i32 (ptr, ptr, ...) @fprintf(ptr noundef %30, ptr noundef nonnull @.str.66, ptr noundef %0) #22
  br label %32

32:                                               ; preds = %15, %26, %11
  call void @llvm.lifetime.end.p0(i64 4, ptr nonnull %3) #20
  call void @llvm.lifetime.end.p0(i64 2048, ptr nonnull %2) #20
  br label %33

33:                                               ; preds = %32, %1
  ret void
}